target datalayout = "e-m:e-p270:32:32-p271:32:32-p272:64:64-i64:64-i128:128-f80:128-n8:16:32:64-S128"
target triple = "x86_64-pc-linux-gnu"

%struct.AVBitStreamFilter = type { ptr, ptr, ptr }
%struct.AVPacket = type { ptr, i64, i64, ptr, i32, i32, i32, ptr, i32, i64, i64, ptr, ptr, %struct.AVRational }
%struct.AVRational = type { i32, i32 }

@.str = private unnamed_addr constant [12 x i8] c"text2movsub\00", align 1
@ff_text2movsub_bsf = constant { %struct.AVBitStreamFilter, i32, [4 x i8], ptr, ptr, ptr, ptr } { %struct.AVBitStreamFilter { ptr @.str, ptr null, ptr null }, i32 0, [4 x i8] zeroinitializer, ptr null, ptr @text2movsub, ptr null, ptr null }, align 8
@.str.1 = private unnamed_addr constant [12 x i8] c"mov2textsub\00", align 1
@ff_mov2textsub_bsf = constant { %struct.AVBitStreamFilter, i32, [4 x i8], ptr, ptr, ptr, ptr } { %struct.AVBitStreamFilter { ptr @.str.1, ptr null, ptr null }, i32 0, [4 x i8] zeroinitializer, ptr null, ptr @mov2textsub, ptr null, ptr null }, align 8

; Function Attrs: nounwind uwtable
define internal i32 @text2movsub(ptr noundef %0, ptr noundef %1) #0 {
  %3 = alloca i32, align 4
  %4 = alloca ptr, align 8
  %5 = alloca ptr, align 8
  %6 = alloca ptr, align 8
  %7 = alloca i32, align 4
  %8 = alloca i32, align 4
  store ptr %0, ptr %4, align 8, !tbaa !4
  store ptr %1, ptr %5, align 8, !tbaa !9
  call void @llvm.lifetime.start.p0(i64 8, ptr %6) #5
  call void @llvm.lifetime.start.p0(i64 4, ptr %7) #5
  store i32 0, ptr %7, align 4, !tbaa !11
  %9 = load ptr, ptr %4, align 8, !tbaa !4
  %10 = call i32 @ff_bsf_get_packet(ptr noundef %9, ptr noundef %6)
  store i32 %10, ptr %7, align 4, !tbaa !11
  %11 = load i32, ptr %7, align 4, !tbaa !11
  %12 = icmp slt i32 %11, 0
  br i1 %12, label %13, label %15

13:                                               ; preds = %2
  %14 = load i32, ptr %7, align 4, !tbaa !11
  store i32 %14, ptr %3, align 4
  store i32 1, ptr %8, align 4
  br label %65

15:                                               ; preds = %2
  %16 = load ptr, ptr %6, align 8, !tbaa !9
  %17 = getelementptr inbounds nuw %struct.AVPacket, ptr %16, i32 0, i32 4
  %18 = load i32, ptr %17, align 8, !tbaa !13
  %19 = icmp sgt i32 %18, 65535
  br i1 %19, label %20, label %21

20:                                               ; preds = %15
  store i32 -1094995529, ptr %7, align 4, !tbaa !11
  br label %58

21:                                               ; preds = %15
  %22 = load ptr, ptr %5, align 8, !tbaa !9
  %23 = load ptr, ptr %6, align 8, !tbaa !9
  %24 = getelementptr inbounds nuw %struct.AVPacket, ptr %23, i32 0, i32 4
  %25 = load i32, ptr %24, align 8, !tbaa !13
  %26 = add nsw i32 %25, 2
  %27 = call i32 @av_new_packet(ptr noundef %22, i32 noundef %26)
  store i32 %27, ptr %7, align 4, !tbaa !11
  %28 = load i32, ptr %7, align 4, !tbaa !11
  %29 = icmp slt i32 %28, 0
  br i1 %29, label %30, label %31

30:                                               ; preds = %21
  store i32 -12, ptr %7, align 4, !tbaa !11
  br label %58

31:                                               ; preds = %21
  %32 = load ptr, ptr %5, align 8, !tbaa !9
  %33 = load ptr, ptr %6, align 8, !tbaa !9
  %34 = call i32 @av_packet_copy_props(ptr noundef %32, ptr noundef %33)
  store i32 %34, ptr %7, align 4, !tbaa !11
  %35 = load i32, ptr %7, align 4, !tbaa !11
  %36 = icmp slt i32 %35, 0
  br i1 %36, label %37, label %38

37:                                               ; preds = %31
  br label %58

38:                                               ; preds = %31
  %39 = load ptr, ptr %6, align 8, !tbaa !9
  %40 = getelementptr inbounds nuw %struct.AVPacket, ptr %39, i32 0, i32 4
  %41 = load i32, ptr %40, align 8, !tbaa !13
  %42 = trunc i32 %41 to i16
  %43 = call zeroext i16 @av_bswap16(i16 noundef zeroext %42) #6
  %44 = load ptr, ptr %5, align 8, !tbaa !9
  %45 = getelementptr inbounds nuw %struct.AVPacket, ptr %44, i32 0, i32 3
  %46 = load ptr, ptr %45, align 8, !tbaa !20
  store i16 %43, ptr %46, align 1, !tbaa !21
  %47 = load ptr, ptr %5, align 8, !tbaa !9
  %48 = getelementptr inbounds nuw %struct.AVPacket, ptr %47, i32 0, i32 3
  %49 = load ptr, ptr %48, align 8, !tbaa !20
  %50 = getelementptr inbounds i8, ptr %49, i64 2
  %51 = load ptr, ptr %6, align 8, !tbaa !9
  %52 = getelementptr inbounds nuw %struct.AVPacket, ptr %51, i32 0, i32 3
  %53 = load ptr, ptr %52, align 8, !tbaa !20
  %54 = load ptr, ptr %6, align 8, !tbaa !9
  %55 = getelementptr inbounds nuw %struct.AVPacket, ptr %54, i32 0, i32 4
  %56 = load i32, ptr %55, align 8, !tbaa !13
  %57 = sext i32 %56 to i64
  call void @llvm.memcpy.p0.p0.i64(ptr align 1 %50, ptr align 1 %53, i64 %57, i1 false)
  br label %58

58:                                               ; preds = %38, %37, %30, %20
  %59 = load i32, ptr %7, align 4, !tbaa !11
  %60 = icmp slt i32 %59, 0
  br i1 %60, label %61, label %63

61:                                               ; preds = %58
  %62 = load ptr, ptr %5, align 8, !tbaa !9
  call void @av_packet_unref(ptr noundef %62)
  br label %63

63:                                               ; preds = %61, %58
  call void @av_packet_free(ptr noundef %6)
  %64 = load i32, ptr %7, align 4, !tbaa !11
  store i32 %64, ptr %3, align 4
  store i32 1, ptr %8, align 4
  br label %65

65:                                               ; preds = %63, %13
  call void @llvm.lifetime.end.p0(i64 4, ptr %7) #5
  call void @llvm.lifetime.end.p0(i64 8, ptr %6) #5
  %66 = load i32, ptr %3, align 4
  ret i32 %66
}

; Function Attrs: nounwind uwtable
define internal i32 @mov2textsub(ptr noundef %0, ptr noundef %1) #0 {
  %3 = alloca i32, align 4
  %4 = alloca ptr, align 8
  %5 = alloca ptr, align 8
  %6 = alloca i32, align 4
  %7 = alloca i32, align 4
  store ptr %0, ptr %4, align 8, !tbaa !4
  store ptr %1, ptr %5, align 8, !tbaa !9
  call void @llvm.lifetime.start.p0(i64 4, ptr %6) #5
  store i32 0, ptr %6, align 4, !tbaa !11
  %8 = load ptr, ptr %4, align 8, !tbaa !4
  %9 = load ptr, ptr %5, align 8, !tbaa !9
  %10 = call i32 @ff_bsf_get_packet_ref(ptr noundef %8, ptr noundef %9)
  store i32 %10, ptr %6, align 4, !tbaa !11
  %11 = load i32, ptr %6, align 4, !tbaa !11
  %12 = icmp slt i32 %11, 0
  br i1 %12, label %13, label %15

13:                                               ; preds = %2
  %14 = load i32, ptr %6, align 4, !tbaa !11
  store i32 %14, ptr %3, align 4
  store i32 1, ptr %7, align 4
  br label %54

15:                                               ; preds = %2
  %16 = load ptr, ptr %5, align 8, !tbaa !9
  %17 = getelementptr inbounds nuw %struct.AVPacket, ptr %16, i32 0, i32 4
  %18 = load i32, ptr %17, align 8, !tbaa !13
  %19 = icmp slt i32 %18, 2
  br i1 %19, label %20, label %22

20:                                               ; preds = %15
  %21 = load ptr, ptr %5, align 8, !tbaa !9
  call void @av_packet_unref(ptr noundef %21)
  store i32 -1094995529, ptr %3, align 4
  store i32 1, ptr %7, align 4
  br label %54

22:                                               ; preds = %15
  %23 = load ptr, ptr %5, align 8, !tbaa !9
  %24 = getelementptr inbounds nuw %struct.AVPacket, ptr %23, i32 0, i32 4
  %25 = load i32, ptr %24, align 8, !tbaa !13
  %26 = sub nsw i32 %25, 2
  %27 = load ptr, ptr %5, align 8, !tbaa !9
  %28 = getelementptr inbounds nuw %struct.AVPacket, ptr %27, i32 0, i32 3
  %29 = load ptr, ptr %28, align 8, !tbaa !20
  %30 = load i16, ptr %29, align 1, !tbaa !21
  %31 = call zeroext i16 @av_bswap16(i16 noundef zeroext %30) #6
  %32 = zext i16 %31 to i32
  %33 = icmp sgt i32 %26, %32
  br i1 %33, label %34, label %41

34:                                               ; preds = %22
  %35 = load ptr, ptr %5, align 8, !tbaa !9
  %36 = getelementptr inbounds nuw %struct.AVPacket, ptr %35, i32 0, i32 3
  %37 = load ptr, ptr %36, align 8, !tbaa !20
  %38 = load i16, ptr %37, align 1, !tbaa !21
  %39 = call zeroext i16 @av_bswap16(i16 noundef zeroext %38) #6
  %40 = zext i16 %39 to i32
  br label %46

41:                                               ; preds = %22
  %42 = load ptr, ptr %5, align 8, !tbaa !9
  %43 = getelementptr inbounds nuw %struct.AVPacket, ptr %42, i32 0, i32 4
  %44 = load i32, ptr %43, align 8, !tbaa !13
  %45 = sub nsw i32 %44, 2
  br label %46

46:                                               ; preds = %41, %34
  %47 = phi i32 [ %40, %34 ], [ %45, %41 ]
  %48 = load ptr, ptr %5, align 8, !tbaa !9
  %49 = getelementptr inbounds nuw %struct.AVPacket, ptr %48, i32 0, i32 4
  store i32 %47, ptr %49, align 8, !tbaa !13
  %50 = load ptr, ptr %5, align 8, !tbaa !9
  %51 = getelementptr inbounds nuw %struct.AVPacket, ptr %50, i32 0, i32 3
  %52 = load ptr, ptr %51, align 8, !tbaa !20
  %53 = getelementptr inbounds i8, ptr %52, i64 2
  store ptr %53, ptr %51, align 8, !tbaa !20
  store i32 0, ptr %3, align 4
  store i32 1, ptr %7, align 4
  br label %54

54:                                               ; preds = %46, %20, %13
  call void @llvm.lifetime.end.p0(i64 4, ptr %6) #5
  %55 = load i32, ptr %3, align 4
  ret i32 %55
}

; Function Attrs: nocallback nofree nosync nounwind willreturn memory(argmem: readwrite)
declare void @llvm.lifetime.start.p0(i64 immarg, ptr captures(none)) #1

declare i32 @ff_bsf_get_packet(ptr noundef, ptr noundef) #2

declare i32 @av_new_packet(ptr noundef, i32 noundef) #2

declare i32 @av_packet_copy_props(ptr noundef, ptr noundef) #2

; Function Attrs: alwaysinline nounwind willreturn memory(none) uwtable
define internal zeroext i16 @av_bswap16(i16 noundef zeroext %0) #3 {
  %2 = alloca i16, align 2
  store i16 %0, ptr %2, align 2, !tbaa !22
  %3 = load i16, ptr %2, align 2, !tbaa !22
  %4 = zext i16 %3 to i32
  %5 = ashr i32 %4, 8
  %6 = load i16, ptr %2, align 2, !tbaa !22
  %7 = zext i16 %6 to i32
  %8 = shl i32 %7, 8
  %9 = or i32 %5, %8
  %10 = trunc i32 %9 to i16
  store i16 %10, ptr %2, align 2, !tbaa !22
  %11 = load i16, ptr %2, align 2, !tbaa !22
  ret i16 %11
}

; Function Attrs: nocallback nofree nounwind willreturn memory(argmem: readwrite)
declare void @llvm.memcpy.p0.p0.i64(ptr noalias writeonly captures(none), ptr noalias readonly captures(none), i64, i1 immarg) #4

declare void @av_packet_unref(ptr noundef) #2

declare void @av_packet_free(ptr noundef) #2

; Function Attrs: nocallback nofree nosync nounwind willreturn memory(argmem: readwrite)
declare void @llvm.lifetime.end.p0(i64 immarg, ptr captures(none)) #1

declare i32 @ff_bsf_get_packet_ref(ptr noundef, ptr noundef) #2


!llvm.module.flags = !{!0, !1, !2, !3}

!0 = !{i32 1, !"wchar_size", i32 4}
!1 = !{i32 8, !"PIC Level", i32 2}
!2 = !{i32 7, !"uwtable", i32 2}
!3 = !{i32 1, !"override-stack-alignment", i32 16}
!4 = !{!5, !5, i64 0}
!5 = !{!"p1 _ZTS12AVBSFContext", !6, i64 0}
!6 = !{!"any pointer", !7, i64 0}
!7 = !{!"omnipotent char", !8, i64 0}
!8 = !{!"Simple C/C++ TBAA"}
!9 = !{!10, !10, i64 0}
!10 = !{!"p1 _ZTS8AVPacket", !6, i64 0}
!11 = !{!12, !12, i64 0}
!12 = !{!"int", !7, i64 0}
!13 = !{!14, !12, i64 32}
!14 = !{!"AVPacket", !15, i64 0, !16, i64 8, !16, i64 16, !17, i64 24, !12, i64 32, !12, i64 36, !12, i64 40, !18, i64 48, !12, i64 56, !16, i64 64, !16, i64 72, !6, i64 80, !15, i64 88, !19, i64 96}
!15 = !{!"p1 _ZTS11AVBufferRef", !6, i64 0}
!16 = !{!"long", !7, i64 0}
!17 = !{!"p1 omnipotent char", !6, i64 0}
!18 = !{!"p1 _ZTS16AVPacketSideData", !6, i64 0}
!19 = !{!"AVRational", !12, i64 0, !12, i64 4}
!20 = !{!14, !17, i64 24}
!21 = !{!7, !7, i64 0}
!22 = !{!23, !23, i64 0}
!23 = !{!"short", !7, i64 0}
